; Function Attrs: mustprogress uwtable
define void @_ZN32pxrInternal_v0_24__pxrReserved__14TfEscapeStringERKNSt7__cxx1112basic_stringIcSt11char_traitsIcESaIcEEE(ptr dead_on_unwind noalias writable sret(%"class.std::__cxx11::basic_string") align 8 %0, ptr noundef nonnull align 8 dereferenceable(32) %1) local_unnamed_addr #0 personality ptr @__gxx_personality_v0 {
  %3 = alloca ptr, align 8
  %4 = alloca ptr, align 8
  %5 = alloca %"class.std::allocator", align 1
  %6 = tail call noundef i64 @_ZNKSt7__cxx1112basic_stringIcSt11char_traitsIcESaIcEE4sizeEv(ptr noundef nonnull align 8 dereferenceable(32) %1) #22
  %7 = add i64 %6, 1
  %8 = tail call noalias noundef nonnull ptr @_Znam(i64 noundef %7) #26
  store ptr %8, ptr %3, align 8
  %9 = tail call noundef ptr @_ZNKSt7__cxx1112basic_stringIcSt11char_traitsIcESaIcEE5c_strEv(ptr noundef nonnull align 8 dereferenceable(32) %1) #22
  br label %10

10:                                               ; preds = %16, %2
  %storemerge = phi ptr [ %9, %2 ], [ %18, %16 ]
  store ptr %storemerge, ptr %4, align 8
  %11 = load i8, ptr %storemerge, align 1
  switch i8 %11, label %12 [
    i8 0, label %19
    i8 92, label %15
  ]

12:                                               ; preds = %10
  %13 = load ptr, ptr %3, align 8
  %14 = getelementptr inbounds i8, ptr %13, i64 1
  store ptr %14, ptr %3, align 8
  store i8 %11, ptr %13, align 1
  br label %16

15:                                               ; preds = %10
  call void @_ZN32pxrInternal_v0_24__pxrReserved__25TfEscapeStringReplaceCharEPPKcPPc(ptr noundef nonnull %4, ptr noundef nonnull %3)
  %.pre = load ptr, ptr %4, align 8
  br label %16

16:                                               ; preds = %15, %12
  %17 = phi ptr [ %.pre, %15 ], [ %storemerge, %12 ]
  %18 = getelementptr inbounds i8, ptr %17, i64 1
  br label %10, !llvm.loop !52

19:                                               ; preds = %10
  %20 = load ptr, ptr %3, align 8
  %21 = getelementptr inbounds i8, ptr %20, i64 1
  store i8 0, ptr %20, align 1
  %22 = ptrtoint ptr %21 to i64
  %23 = ptrtoint ptr %8 to i64
  %24 = xor i64 %23, -1
  %25 = add i64 %22, %24
  call void @_ZNSaIcEC1Ev(ptr noundef nonnull align 1 dereferenceable(1) %5) #22
  invoke void @_ZNSt7__cxx1112basic_stringIcSt11char_traitsIcESaIcEEC1EPKcmRKS3_(ptr noundef nonnull align 8 dereferenceable(32) %0, ptr noundef nonnull %8, i64 noundef %25, ptr noundef nonnull align 1 dereferenceable(1) %5)
          to label %_ZNSt10unique_ptrIcSt14default_deleteIA_cEED2Ev.exit unwind label %_ZNSt10unique_ptrIcSt14default_deleteIA_cEED2Ev.exit9

_ZNSt10unique_ptrIcSt14default_deleteIA_cEED2Ev.exit: ; preds = %19
  call void @_ZNSaIcED1Ev(ptr noundef nonnull align 1 dereferenceable(1) %5) #22
  call void @_ZdaPv(ptr noundef nonnull %8) #24
  ret void

_ZNSt10unique_ptrIcSt14default_deleteIA_cEED2Ev.exit9: ; preds = %19
  %26 = landingpad { ptr, i32 }
          cleanup
  call void @_ZNSaIcED1Ev(ptr noundef nonnull align 1 dereferenceable(1) %5) #22
  call void @_ZdaPv(ptr noundef nonnull %8) #24
  resume { ptr, i32 } %26
}